target datalayout = "e-m:e-p270:32:32-p271:32:32-p272:64:64-i64:64-i128:128-f80:128-n8:16:32:64-S128"
target triple = "x86_64-pc-linux-gnu"

%"class.llvm::X86TTIImpl" = type { %"class.llvm::BasicTTIImplBase", ptr, ptr, %"class.llvm::FeatureBitset" }
%"class.llvm::BasicTTIImplBase" = type { ptr, %"class.llvm::TargetTransformInfoImplCRTPBase" }
%"class.llvm::TargetTransformInfoImplCRTPBase" = type { %"class.llvm::TargetTransformInfoImplBase" }
%"class.llvm::TargetTransformInfoImplBase" = type { ptr }
%"class.llvm::FeatureBitset" = type { %"struct.std::array" }
%"struct.std::array" = type { [5 x i64] }
%"struct.llvm::Align" = type { i8 }
%"class.llvm::DenseMap.38" = type <{ ptr, i32, i32, i32, [4 x i8] }>
%"class.llvm::Register" = type { i32 }
%"class.llvm::MVT" = type { i16 }
%"class.llvm::TargetLoweringBase::ValueTypeActionImpl" = type { [233 x i8] }
%"class.std::map" = type { %"class.std::_Rb_tree" }
%"class.std::_Rb_tree" = type { %"struct.std::_Rb_tree<std::pair<unsigned int, llvm::MVT::SimpleValueType>, std::pair<const std::pair<unsigned int, llvm::MVT::SimpleValueType>, llvm::MVT::SimpleValueType>, std::_Select1st<std::pair<const std::pair<unsigned int, llvm::MVT::SimpleValueType>, llvm::MVT::SimpleValueType>>, std::less<std::pair<unsigned int, llvm::MVT::SimpleValueType>>>::_Rb_tree_impl" }
%"struct.std::_Rb_tree<std::pair<unsigned int, llvm::MVT::SimpleValueType>, std::pair<const std::pair<unsigned int, llvm::MVT::SimpleValueType>, llvm::MVT::SimpleValueType>, std::_Select1st<std::pair<const std::pair<unsigned int, llvm::MVT::SimpleValueType>, llvm::MVT::SimpleValueType>>, std::less<std::pair<unsigned int, llvm::MVT::SimpleValueType>>>::_Rb_tree_impl" = type { [8 x i8], %"struct.std::_Rb_tree_header" }
%"struct.std::_Rb_tree_header" = type { %"struct.std::_Rb_tree_node_base", i64 }
%"struct.std::_Rb_tree_node_base" = type { i32, ptr, ptr, ptr }
%"struct.llvm::RTLIB::RuntimeLibcallsInfo" = type { [701 x ptr], [700 x i32] }
%"struct.llvm::EVT" = type { %"class.llvm::MVT", ptr }
%"class.llvm::TargetLoweringBase" = type <{ ptr, ptr, i8, i8, [6 x i8], %"class.llvm::DenseMap.38", i8, [3 x i8], i32, i32, i32, i8, %"struct.llvm::Align", %"struct.llvm::Align", %"struct.llvm::Align", %"struct.llvm::Align", [3 x i8], i32, i32, i32, i32, i32, i8, [3 x i8], %"class.llvm::Register", [4 x i8], [233 x ptr], [233 x i16], [233 x %"class.llvm::MVT"], [4 x i8], [233 x ptr], [233 x i8], i8, [233 x %"class.llvm::MVT"], [233 x [491 x i8]], i8, [233 x [233 x i16]], [233 x [233 x i16]], [233 x [233 x i8]], i8, [233 x [5 x i16]], [24 x [30 x i32]], %"class.llvm::TargetLoweringBase::ValueTypeActionImpl", [62 x i8], i8, %"class.std::map", %"struct.llvm::RTLIB::RuntimeLibcallsInfo", [700 x i32], i32, i32, i32, i32, i32, i32, i32, i32, i32, i32, i8, i8, i8, [5 x i8] }>

; Function Attrs: mustprogress nounwind uwtable
define linkonce_odr hidden noundef zeroext i1 @_ZNK4llvm3EVT10isExtendedEv(ptr noundef nonnull align 8 dereferenceable(16) %0) #0 comdat align 2 {
  %2 = alloca ptr, align 8
  store ptr %0, ptr %2, align 8
  %3 = load ptr, ptr %2, align 8
  %4 = call noundef zeroext i1 @_ZNK4llvm3EVT8isSimpleEv(ptr noundef nonnull align 8 dereferenceable(16) %3)
  %5 = xor i1 %4, true
  ret i1 %5
}

; Function Attrs: mustprogress nounwind uwtable
define linkonce_odr noundef i64 @_ZSt4sizeIN4llvm18TargetLoweringBase14LegalizeActionELm491EEmRAT0__KT_(ptr noundef nonnull align 1 dereferenceable(491) %0) #0 comdat {
  %2 = alloca ptr, align 8
  store ptr %0, ptr %2, align 8
  ret i64 491
}

; Function Attrs: mustprogress nounwind uwtable
define linkonce_odr hidden i16 @_ZNK4llvm3EVT11getSimpleVTEv(ptr noundef nonnull align 8 dereferenceable(16) %0) #0 comdat align 2 {
  %2 = alloca %"class.llvm::MVT", align 2
  %3 = alloca ptr, align 8
  store ptr %0, ptr %3, align 8
  %4 = load ptr, ptr %3, align 8
  %5 = getelementptr inbounds nuw %"struct.llvm::EVT", ptr %4, i32 0, i32 0
  call void @llvm.memcpy.p0.p0.i64(ptr align 2 %2, ptr align 8 %5, i64 2, i1 false)
  %6 = getelementptr inbounds nuw %"class.llvm::MVT", ptr %2, i32 0, i32 0
  %7 = load i16, ptr %6, align 2
  ret i16 %7
}

; Function Attrs: mustprogress nounwind uwtable
define linkonce_odr hidden noundef zeroext i1 @_ZNK4llvm3EVT8isSimpleEv(ptr noundef nonnull align 8 dereferenceable(16) %0) #0 comdat align 2 {
  %2 = alloca ptr, align 8
  store ptr %0, ptr %2, align 8
  %3 = load ptr, ptr %2, align 8
  %4 = getelementptr inbounds nuw %"struct.llvm::EVT", ptr %3, i32 0, i32 0
  %5 = getelementptr inbounds nuw %"class.llvm::MVT", ptr %4, i32 0, i32 0
  %6 = load i16, ptr %5, align 8
  %7 = zext i16 %6 to i32
  %8 = icmp ne i32 %7, 0
  ret i1 %8
}

; Function Attrs: mustprogress nounwind uwtable
define linkonce_odr hidden noundef zeroext i1 @_ZNK4llvm3EVTneES0_(ptr noundef nonnull align 8 dereferenceable(16) %0, i16 %1, ptr %2) #0 comdat align 2 {
  %4 = alloca i1, align 1
  %5 = alloca %"struct.llvm::EVT", align 8
  %6 = alloca ptr, align 8
  %7 = getelementptr inbounds nuw { i16, ptr }, ptr %5, i32 0, i32 0
  store i16 %1, ptr %7, align 8
  %8 = getelementptr inbounds nuw { i16, ptr }, ptr %5, i32 0, i32 1
  store ptr %2, ptr %8, align 8
  store ptr %0, ptr %6, align 8
  %9 = load ptr, ptr %6, align 8
  %10 = getelementptr inbounds nuw %"struct.llvm::EVT", ptr %9, i32 0, i32 0
  %11 = getelementptr inbounds nuw %"class.llvm::MVT", ptr %10, i32 0, i32 0
  %12 = load i16, ptr %11, align 8
  %13 = zext i16 %12 to i32
  %14 = getelementptr inbounds nuw %"struct.llvm::EVT", ptr %5, i32 0, i32 0
  %15 = getelementptr inbounds nuw %"class.llvm::MVT", ptr %14, i32 0, i32 0
  %16 = load i16, ptr %15, align 8
  %17 = zext i16 %16 to i32
  %18 = icmp ne i32 %13, %17
  br i1 %18, label %19, label %20

19:                                               ; preds = %3
  store i1 true, ptr %4, align 1
  br label %33

20:                                               ; preds = %3
  %21 = getelementptr inbounds nuw %"struct.llvm::EVT", ptr %9, i32 0, i32 0
  %22 = getelementptr inbounds nuw %"class.llvm::MVT", ptr %21, i32 0, i32 0
  %23 = load i16, ptr %22, align 8
  %24 = zext i16 %23 to i32
  %25 = icmp eq i32 %24, 0
  br i1 %25, label %26, label %32

26:                                               ; preds = %20
  %27 = getelementptr inbounds nuw %"struct.llvm::EVT", ptr %9, i32 0, i32 1
  %28 = load ptr, ptr %27, align 8
  %29 = getelementptr inbounds nuw %"struct.llvm::EVT", ptr %5, i32 0, i32 1
  %30 = load ptr, ptr %29, align 8
  %31 = icmp ne ptr %28, %30
  store i1 %31, ptr %4, align 1
  br label %33

32:                                               ; preds = %20
  store i1 false, ptr %4, align 1
  br label %33

33:                                               ; preds = %32, %26, %19
  %34 = load i1, ptr %4, align 1
  ret i1 %34
}

; Function Attrs: mustprogress nounwind uwtable
define linkonce_odr hidden void @_ZN4llvm3MVTC2ENS0_15SimpleValueTypeE(ptr noundef nonnull align 2 dereferenceable(2) %0, i16 noundef zeroext %1) unnamed_addr #0 comdat align 2 {
  %3 = alloca ptr, align 8
  %4 = alloca i16, align 2
  store ptr %0, ptr %3, align 8
  store i16 %1, ptr %4, align 2
  %5 = load ptr, ptr %3, align 8
  %6 = getelementptr inbounds nuw %"class.llvm::MVT", ptr %5, i32 0, i32 0
  %7 = load i16, ptr %4, align 2
  store i16 %7, ptr %6, align 2
  ret void
}

; Function Attrs: mustprogress nounwind uwtable
define linkonce_odr hidden noundef zeroext i8 @_ZNK4llvm18TargetLoweringBase18getOperationActionEjNS_3EVTE(ptr noundef nonnull align 8 dereferenceable(408123) %0, i32 noundef %1, i16 %2, ptr %3) #0 comdat align 2 {
  %5 = alloca i8, align 1
  %6 = alloca %"struct.llvm::EVT", align 8
  %7 = alloca ptr, align 8
  %8 = alloca i32, align 4
  %9 = alloca %"class.llvm::MVT", align 2
  %10 = getelementptr inbounds nuw { i16, ptr }, ptr %6, i32 0, i32 0
  store i16 %2, ptr %10, align 8
  %11 = getelementptr inbounds nuw { i16, ptr }, ptr %6, i32 0, i32 1
  store ptr %3, ptr %11, align 8
  store ptr %0, ptr %7, align 8
  store i32 %1, ptr %8, align 4
  %12 = load ptr, ptr %7, align 8
  %13 = load i32, ptr %8, align 4
  %14 = zext i32 %13 to i64
  %15 = getelementptr inbounds nuw %"class.llvm::TargetLoweringBase", ptr %12, i32 0, i32 34
  %16 = getelementptr inbounds [233 x [491 x i8]], ptr %15, i64 0, i64 0
  %17 = call noundef i64 @_ZSt4sizeIN4llvm18TargetLoweringBase14LegalizeActionELm491EEmRAT0__KT_(ptr noundef nonnull align 1 dereferenceable(491) %16) #10
  %18 = icmp uge i64 %14, %17
  br i1 %18, label %19, label %20

19:                                               ; preds = %4
  store i8 4, ptr %5, align 1
  br label %36

20:                                               ; preds = %4
  %21 = call noundef zeroext i1 @_ZNK4llvm3EVT10isExtendedEv(ptr noundef nonnull align 8 dereferenceable(16) %6)
  br i1 %21, label %22, label %23

22:                                               ; preds = %20
  store i8 2, ptr %5, align 1
  br label %36

23:                                               ; preds = %20
  %24 = getelementptr inbounds nuw %"class.llvm::TargetLoweringBase", ptr %12, i32 0, i32 34
  %25 = call i16 @_ZNK4llvm3EVT11getSimpleVTEv(ptr noundef nonnull align 8 dereferenceable(16) %6)
  %26 = getelementptr inbounds nuw %"class.llvm::MVT", ptr %9, i32 0, i32 0
  store i16 %25, ptr %26, align 2
  %27 = getelementptr inbounds nuw %"class.llvm::MVT", ptr %9, i32 0, i32 0
  %28 = load i16, ptr %27, align 2
  %29 = zext i16 %28 to i32
  %30 = zext i32 %29 to i64
  %31 = getelementptr inbounds [233 x [491 x i8]], ptr %24, i64 0, i64 %30
  %32 = load i32, ptr %8, align 4
  %33 = zext i32 %32 to i64
  %34 = getelementptr inbounds [491 x i8], ptr %31, i64 0, i64 %33
  %35 = load i8, ptr %34, align 1
  store i8 %35, ptr %5, align 1
  br label %36

36:                                               ; preds = %23, %22, %19
  %37 = load i8, ptr %5, align 1
  ret i8 %37
}

; Function Attrs: mustprogress nounwind uwtable
define linkonce_odr hidden noundef zeroext i1 @_ZNK4llvm18TargetLoweringBase11isTypeLegalENS_3EVTE(ptr noundef nonnull align 8 dereferenceable(408123) %0, i16 %1, ptr %2) #0 comdat align 2 {
  %4 = alloca %"struct.llvm::EVT", align 8
  %5 = alloca ptr, align 8
  %6 = alloca %"class.llvm::MVT", align 2
  %7 = getelementptr inbounds nuw { i16, ptr }, ptr %4, i32 0, i32 0
  store i16 %1, ptr %7, align 8
  %8 = getelementptr inbounds nuw { i16, ptr }, ptr %4, i32 0, i32 1
  store ptr %2, ptr %8, align 8
  store ptr %0, ptr %5, align 8
  %9 = load ptr, ptr %5, align 8
  %10 = call noundef zeroext i1 @_ZNK4llvm3EVT8isSimpleEv(ptr noundef nonnull align 8 dereferenceable(16) %4)
  br i1 %10, label %11, label %21

11:                                               ; preds = %3
  %12 = getelementptr inbounds nuw %"class.llvm::TargetLoweringBase", ptr %9, i32 0, i32 26
  %13 = call i16 @_ZNK4llvm3EVT11getSimpleVTEv(ptr noundef nonnull align 8 dereferenceable(16) %4)
  %14 = getelementptr inbounds nuw %"class.llvm::MVT", ptr %6, i32 0, i32 0
  store i16 %13, ptr %14, align 2
  %15 = getelementptr inbounds nuw %"class.llvm::MVT", ptr %6, i32 0, i32 0
  %16 = load i16, ptr %15, align 2
  %17 = zext i16 %16 to i64
  %18 = getelementptr inbounds [233 x ptr], ptr %12, i64 0, i64 %17
  %19 = load ptr, ptr %18, align 8
  %20 = icmp ne ptr %19, null
  br label %21

21:                                               ; preds = %11, %3
  %22 = phi i1 [ false, %3 ], [ %20, %11 ]
  ret i1 %22
}

; Function Attrs: mustprogress nounwind uwtable
define linkonce_odr hidden noundef zeroext i1 @_ZNK4llvm3EVTeqES0_(ptr noundef nonnull align 8 dereferenceable(16) %0, i16 %1, ptr %2) #0 comdat align 2 {
  %4 = alloca %"struct.llvm::EVT", align 8
  %5 = alloca ptr, align 8
  %6 = alloca %"struct.llvm::EVT", align 8
  %7 = getelementptr inbounds nuw { i16, ptr }, ptr %4, i32 0, i32 0
  store i16 %1, ptr %7, align 8
  %8 = getelementptr inbounds nuw { i16, ptr }, ptr %4, i32 0, i32 1
  store ptr %2, ptr %8, align 8
  store ptr %0, ptr %5, align 8
  %9 = load ptr, ptr %5, align 8
  call void @llvm.memcpy.p0.p0.i64(ptr align 8 %6, ptr align 8 %4, i64 16, i1 false)
  %10 = getelementptr inbounds nuw { i16, ptr }, ptr %6, i32 0, i32 0
  %11 = load i16, ptr %10, align 8
  %12 = getelementptr inbounds nuw { i16, ptr }, ptr %6, i32 0, i32 1
  %13 = load ptr, ptr %12, align 8
  %14 = call noundef zeroext i1 @_ZNK4llvm3EVTneES0_(ptr noundef nonnull align 8 dereferenceable(16) %9, i16 %11, ptr %13)
  %15 = xor i1 %14, true
  ret i1 %15
}

; Function Attrs: mustprogress nounwind uwtable
define linkonce_odr hidden void @_ZN4llvm3EVTC2ENS_3MVT15SimpleValueTypeE(ptr noundef nonnull align 8 dereferenceable(16) %0, i16 noundef zeroext %1) unnamed_addr #0 comdat align 2 {
  %3 = alloca ptr, align 8
  %4 = alloca i16, align 2
  store ptr %0, ptr %3, align 8
  store i16 %1, ptr %4, align 2
  %5 = load ptr, ptr %3, align 8
  %6 = getelementptr inbounds nuw %"struct.llvm::EVT", ptr %5, i32 0, i32 0
  %7 = load i16, ptr %4, align 2
  call void @_ZN4llvm3MVTC2ENS0_15SimpleValueTypeE(ptr noundef nonnull align 2 dereferenceable(2) %6, i16 noundef zeroext %7)
  %8 = getelementptr inbounds nuw %"struct.llvm::EVT", ptr %5, i32 0, i32 1
  store ptr null, ptr %8, align 8
  ret void
}

; Function Attrs: mustprogress nounwind uwtable
define linkonce_odr hidden noundef zeroext i1 @_ZNK4llvm18TargetLoweringBase16isOperationLegalEjNS_3EVTE(ptr noundef nonnull align 8 dereferenceable(408123) %0, i32 noundef %1, i16 %2, ptr %3) #0 comdat align 2 {
  %5 = alloca %"struct.llvm::EVT", align 8
  %6 = alloca ptr, align 8
  %7 = alloca i32, align 4
  %8 = alloca %"struct.llvm::EVT", align 8
  %9 = alloca %"struct.llvm::EVT", align 8
  %10 = alloca %"struct.llvm::EVT", align 8
  %11 = getelementptr inbounds nuw { i16, ptr }, ptr %5, i32 0, i32 0
  store i16 %2, ptr %11, align 8
  %12 = getelementptr inbounds nuw { i16, ptr }, ptr %5, i32 0, i32 1
  store ptr %3, ptr %12, align 8
  store ptr %0, ptr %6, align 8
  store i32 %1, ptr %7, align 4
  %13 = load ptr, ptr %6, align 8
  call void @_ZN4llvm3EVTC2ENS_3MVT15SimpleValueTypeE(ptr noundef nonnull align 8 dereferenceable(16) %8, i16 noundef zeroext 1)
  %14 = getelementptr inbounds nuw { i16, ptr }, ptr %8, i32 0, i32 0
  %15 = load i16, ptr %14, align 8
  %16 = getelementptr inbounds nuw { i16, ptr }, ptr %8, i32 0, i32 1
  %17 = load ptr, ptr %16, align 8
  %18 = call noundef zeroext i1 @_ZNK4llvm3EVTeqES0_(ptr noundef nonnull align 8 dereferenceable(16) %5, i16 %15, ptr %17)
  br i1 %18, label %25, label %19

19:                                               ; preds = %4
  call void @llvm.memcpy.p0.p0.i64(ptr align 8 %9, ptr align 8 %5, i64 16, i1 false)
  %20 = getelementptr inbounds nuw { i16, ptr }, ptr %9, i32 0, i32 0
  %21 = load i16, ptr %20, align 8
  %22 = getelementptr inbounds nuw { i16, ptr }, ptr %9, i32 0, i32 1
  %23 = load ptr, ptr %22, align 8
  %24 = call noundef zeroext i1 @_ZNK4llvm18TargetLoweringBase11isTypeLegalENS_3EVTE(ptr noundef nonnull align 8 dereferenceable(408123) %13, i16 %21, ptr %23)
  br i1 %24, label %25, label %34

25:                                               ; preds = %19, %4
  %26 = load i32, ptr %7, align 4
  call void @llvm.memcpy.p0.p0.i64(ptr align 8 %10, ptr align 8 %5, i64 16, i1 false)
  %27 = getelementptr inbounds nuw { i16, ptr }, ptr %10, i32 0, i32 0
  %28 = load i16, ptr %27, align 8
  %29 = getelementptr inbounds nuw { i16, ptr }, ptr %10, i32 0, i32 1
  %30 = load ptr, ptr %29, align 8
  %31 = call noundef zeroext i8 @_ZNK4llvm18TargetLoweringBase18getOperationActionEjNS_3EVTE(ptr noundef nonnull align 8 dereferenceable(408123) %13, i32 noundef %26, i16 %28, ptr %30)
  %32 = zext i8 %31 to i32
  %33 = icmp eq i32 %32, 0
  br label %34

34:                                               ; preds = %25, %19
  %35 = phi i1 [ false, %19 ], [ %33, %25 ]
  ret i1 %35
}

; Function Attrs: mustprogress nounwind uwtable
define dso_local noundef zeroext i1 @_ZN4llvm10X86TTIImpl11hasDivRemOpEPNS_4TypeEb(ptr noundef nonnull align 8 dereferenceable(72) %0, ptr noundef %1, i1 noundef zeroext %2) #0 align 2 {
  %4 = alloca ptr, align 8
  %5 = alloca ptr, align 8
  %6 = alloca i8, align 1
  %7 = alloca %"struct.llvm::EVT", align 8
  %8 = alloca %"struct.llvm::EVT", align 8
  store ptr %0, ptr %4, align 8
  store ptr %1, ptr %5, align 8
  %9 = zext i1 %2 to i8
  store i8 %9, ptr %6, align 1
  %10 = load ptr, ptr %4, align 8
  %11 = getelementptr inbounds nuw %"class.llvm::X86TTIImpl", ptr %10, i32 0, i32 2
  %12 = load ptr, ptr %11, align 8
  %13 = getelementptr inbounds i8, ptr %10, i64 8
  %14 = getelementptr inbounds nuw %"class.llvm::TargetTransformInfoImplBase", ptr %13, i32 0, i32 0
  %15 = load ptr, ptr %14, align 8
  %16 = load ptr, ptr %5, align 8
  %17 = call { i16, ptr } @_ZNK4llvm18TargetLoweringBase12getValueTypeERKNS_10DataLayoutEPNS_4TypeEb(ptr noundef nonnull align 8 dereferenceable(408123) %12, ptr noundef nonnull align 8 dereferenceable(512) %15, ptr noundef %16, i1 noundef zeroext false)
  %18 = getelementptr inbounds nuw { i16, ptr }, ptr %7, i32 0, i32 0
  %19 = extractvalue { i16, ptr } %17, 0
  store i16 %19, ptr %18, align 8
  %20 = getelementptr inbounds nuw { i16, ptr }, ptr %7, i32 0, i32 1
  %21 = extractvalue { i16, ptr } %17, 1
  store ptr %21, ptr %20, align 8
  %22 = getelementptr inbounds nuw %"class.llvm::X86TTIImpl", ptr %10, i32 0, i32 2
  %23 = load ptr, ptr %22, align 8
  %24 = load i8, ptr %6, align 1
  %25 = trunc i8 %24 to i1
  %26 = select i1 %25, i32 65, i32 66
  call void @llvm.memcpy.p0.p0.i64(ptr align 8 %8, ptr align 8 %7, i64 16, i1 false)
  %27 = getelementptr inbounds nuw { i16, ptr }, ptr %8, i32 0, i32 0
  %28 = load i16, ptr %27, align 8
  %29 = getelementptr inbounds nuw { i16, ptr }, ptr %8, i32 0, i32 1
  %30 = load ptr, ptr %29, align 8
  %31 = call noundef zeroext i1 @_ZNK4llvm18TargetLoweringBase16isOperationLegalEjNS_3EVTE(ptr noundef nonnull align 8 dereferenceable(408123) %23, i32 noundef %26, i16 %28, ptr %30)
  ret i1 %31
}