; Function Attrs: mustprogress nounwind uwtable
define dso_local noundef zeroext i1 @_ZN4llvm10X86TTIImpl11hasDivRemOpEPNS_4TypeEb(ptr noundef nonnull readonly align 8 captures(none) dereferenceable(72) %0, ptr noundef %1, i1 noundef zeroext %2) local_unnamed_addr #3 align 2 {
  %4 = getelementptr inbounds nuw i8, ptr %0, i64 24
  %5 = load ptr, ptr %4, align 8
  %6 = getelementptr inbounds nuw i8, ptr %0, i64 8
  %7 = load ptr, ptr %6, align 8
  %8 = tail call { i16, ptr } @_ZNK4llvm18TargetLoweringBase12getValueTypeERKNS_10DataLayoutEPNS_4TypeEb(ptr noundef nonnull align 8 dereferenceable(408123) %5, ptr noundef nonnull align 8 dereferenceable(512) %7, ptr noundef %1, i1 noundef zeroext false)
  %9 = extractvalue { i16, ptr } %8, 0
  %10 = load ptr, ptr %4, align 8
  switch i16 %9, label %_ZNK4llvm18TargetLoweringBase11isTypeLegalENS_3EVTE.exit.i [
    i16 1, label %_ZNK4llvm3EVTeqES0_.exit.thread._crit_edge.i
    i16 0, label %_ZNK4llvm18TargetLoweringBase16isOperationLegalEjNS_3EVTE.exit
  ]

_ZNK4llvm18TargetLoweringBase11isTypeLegalENS_3EVTE.exit.i: ; preds = %3
  %11 = getelementptr inbounds nuw i8, ptr %10, i64 104
  %12 = zext i16 %9 to i64
  %13 = getelementptr inbounds nuw [233 x ptr], ptr %11, i64 0, i64 %12
  %14 = load ptr, ptr %13, align 8
  %.not.i.not = icmp eq ptr %14, null
  br i1 %.not.i.not, label %_ZNK4llvm18TargetLoweringBase16isOperationLegalEjNS_3EVTE.exit, label %_ZNK4llvm3EVTeqES0_.exit.thread._crit_edge.i

_ZNK4llvm3EVTeqES0_.exit.thread._crit_edge.i:     ; preds = %3, %_ZNK4llvm18TargetLoweringBase11isTypeLegalENS_3EVTE.exit.i
  %.pre-phi.i = phi i64 [ %12, %_ZNK4llvm18TargetLoweringBase11isTypeLegalENS_3EVTE.exit.i ], [ 1, %3 ]
  %15 = getelementptr inbounds nuw i8, ptr %10, i64 5468
  %16 = select i1 %2, i64 65, i64 66
  %17 = getelementptr inbounds nuw [233 x [491 x i8]], ptr %15, i64 0, i64 %.pre-phi.i, i64 %16
  %18 = load i8, ptr %17, align 1
  %19 = icmp eq i8 %18, 0
  br label %_ZNK4llvm18TargetLoweringBase16isOperationLegalEjNS_3EVTE.exit

_ZNK4llvm18TargetLoweringBase16isOperationLegalEjNS_3EVTE.exit: ; preds = %3, %_ZNK4llvm18TargetLoweringBase11isTypeLegalENS_3EVTE.exit.i, %_ZNK4llvm3EVTeqES0_.exit.thread._crit_edge.i
  %20 = phi i1 [ false, %_ZNK4llvm18TargetLoweringBase11isTypeLegalENS_3EVTE.exit.i ], [ false, %3 ], [ %19, %_ZNK4llvm3EVTeqES0_.exit.thread._crit_edge.i ]
  ret i1 %20
}